(dp0
VServer
p1
Vcmsweb.cern.ch
p2
sVPort
p3
V
p4
sVRequestName
p5
V241107_215044:nvenkata_crab_MC_ttbarhad_0711
p6
sVvoRole
p7
VNULL
p8
sVvoGroup
p9
g4
sVinstance
p10
Vprod
p11
sVOriginalConfig
p12
ccopy_reg
_reconstructor
p13
(cWMCore.Configuration
Configuration
p14
c__builtin__
object
p15
Ntp16
Rp17
(dp18
V_internal_sections
p19
(lp20
VGeneral
p21
aVJobType
p22
aVData
p23
aVSite
p24
aVUser
p25
aVDebug
p26
asg21
g13
(cWMCore.Configuration
ConfigSection
p27
g15
Ntp28
Rp29
(dp30
V_internal_documentation
p31
g4
sV_internal_name
p32
g21
sV_internal_settings
p33
c__builtin__
set
p34
((lp35
VtransferLogs
p36
aVworkArea
p37
aVtransferOutputs
p38
aVrequestName
p39
atp40
Rp41
sV_internal_docstrings
p42
(dp43
sV_internal_children
p44
g34
((lp45
tp46
Rp47
sV_internal_parent_ref
p48
NsV_internal_skipChecks
p49
I00
sg38
I01
sg36
I00
sg37
Vcrab_projects
p50
sg39
VMC_ttbarhad_0711
p51
sbsg22
g13
(g27
g15
Ntp52
Rp53
(dp54
g31
g4
sg32
g22
sg33
g34
((lp55
VpsetName
p56
aVpluginName
p57
atp58
Rp59
sg42
(dp60
sg44
g34
((lp61
tp62
Rp63
sg48
Nsg49
I00
sg57
VAnalysis
p64
sg56
VEvents_cfg.py
p65
sbsg23
g13
(g27
g15
Ntp66
Rp67
(dp68
g31
g4
sg32
g23
sg33
g34
((lp69
Vpublication
p70
aVsplitting
p71
aVoutLFNDirBase
p72
aVoutputDatasetTag
p73
aVinputDataset
p74
aVunitsPerJob
p75
atp76
Rp77
sg42
(dp78
sg44
g34
((lp79
tp80
Rp81
sg48
Nsg49
I00
sg71
VFileBased
p82
sg75
I10
sg72
V/store/group/lpcljm/nvenkata/BTVH/ttbarhad_0711
p83
sg70
I00
sg73
VMC_ttbarhad_0711
p84
sg74
V/TTToHadronic_TuneCP5_13TeV-powheg-pythia8/RunIISummer20UL18MiniAODv2-106X_upgrade2018_realistic_v16_L1v1-v1/MINIAODSIM
p85
sbsg24
g13
(g27
g15
Ntp86
Rp87
(dp88
g31
g4
sg32
g24
sg33
g34
((lp89
VstorageSite
p90
atp91
Rp92
sg42
(dp93
sg44
g34
((lp94
tp95
Rp96
sg48
Nsg49
I00
sg90
VT3_US_FNALLPC
p97
sbsg25
g13
(g27
g15
Ntp98
Rp99
(dp100
g31
g4
sg32
g25
sg33
g34
((lp101
tp102
Rp103
sg42
(dp104
sg44
g34
((lp105
tp106
Rp107
sg48
Nsg49
I00
sbsg26
g13
(g27
g15
Ntp108
Rp109
(dp110
g31
g4
sg32
g26
sg33
g34
((lp111
tp112
Rp113
sg42
(dp114
sg44
g34
((lp115
tp116
Rp117
sg48
Nsg49
I00
sbsbs.